target datalayout = "e-m:e-p270:32:32-p271:32:32-p272:64:64-i64:64-i128:128-f80:128-n8:16:32:64-S128"
target triple = "x86_64-pc-linux-gnu"

; Function Attrs: nounwind uwtable
define void @stbtt__h_prefilter(ptr noundef %0, i32 noundef %1, i32 noundef %2, i32 noundef %3, i32 noundef %4) #0 {
  %6 = alloca ptr, align 8
  %7 = alloca i32, align 4
  %8 = alloca i32, align 4
  %9 = alloca i32, align 4
  %10 = alloca i32, align 4
  %11 = alloca [8 x i8], align 1
  %12 = alloca i32, align 4
  %13 = alloca i32, align 4
  %14 = alloca i32, align 4
  %15 = alloca i32, align 4
  store ptr %0, ptr %6, align 8, !tbaa !25
  store i32 %1, ptr %7, align 4, !tbaa !14
  store i32 %2, ptr %8, align 4, !tbaa !14
  store i32 %3, ptr %9, align 4, !tbaa !14
  store i32 %4, ptr %10, align 4, !tbaa !14
  call void @llvm.lifetime.start.p0(i64 8, ptr %11) #8
  call void @llvm.lifetime.start.p0(i64 4, ptr %12) #8
  %16 = load i32, ptr %7, align 4, !tbaa !14
  %17 = load i32, ptr %10, align 4, !tbaa !14
  %18 = sub i32 %16, %17
  store i32 %18, ptr %12, align 4, !tbaa !14
  call void @llvm.lifetime.start.p0(i64 4, ptr %13) #8
  %19 = getelementptr inbounds [8 x i8], ptr %11, i64 0, i64 0
  call void @llvm.memset.p0.i64(ptr align 1 %19, i8 0, i64 8, i1 false)
  store i32 0, ptr %13, align 4, !tbaa !14
  br label %20

20:                                               ; preds = %275, %5
  %21 = load i32, ptr %13, align 4, !tbaa !14
  %22 = load i32, ptr %8, align 4, !tbaa !14
  %23 = icmp slt i32 %21, %22
  br i1 %23, label %24, label %278

24:                                               ; preds = %20
  call void @llvm.lifetime.start.p0(i64 4, ptr %14) #8
  call void @llvm.lifetime.start.p0(i64 4, ptr %15) #8
  %25 = getelementptr inbounds [8 x i8], ptr %11, i64 0, i64 0
  %26 = load i32, ptr %10, align 4, !tbaa !14
  %27 = zext i32 %26 to i64
  call void @llvm.memset.p0.i64(ptr align 1 %25, i8 0, i64 %27, i1 false)
  store i32 0, ptr %15, align 4, !tbaa !14
  %28 = load i32, ptr %10, align 4, !tbaa !14
  switch i32 %28, label %201 [
    i32 2, label %29
    i32 3, label %72
    i32 4, label %115
    i32 5, label %158
  ]

29:                                               ; preds = %24
  store i32 0, ptr %14, align 4, !tbaa !14
  br label %30

30:                                               ; preds = %68, %29
  %31 = load i32, ptr %14, align 4, !tbaa !14
  %32 = load i32, ptr %12, align 4, !tbaa !14
  %33 = icmp sle i32 %31, %32
  br i1 %33, label %34, label %71

34:                                               ; preds = %30
  %35 = load ptr, ptr %6, align 8, !tbaa !25
  %36 = load i32, ptr %14, align 4, !tbaa !14
  %37 = sext i32 %36 to i64
  %38 = getelementptr inbounds i8, ptr %35, i64 %37
  %39 = load i8, ptr %38, align 1, !tbaa !13
  %40 = zext i8 %39 to i32
  %41 = load i32, ptr %14, align 4, !tbaa !14
  %42 = and i32 %41, 7
  %43 = sext i32 %42 to i64
  %44 = getelementptr inbounds [8 x i8], ptr %11, i64 0, i64 %43
  %45 = load i8, ptr %44, align 1, !tbaa !13
  %46 = zext i8 %45 to i32
  %47 = sub nsw i32 %40, %46
  %48 = load i32, ptr %15, align 4, !tbaa !14
  %49 = add i32 %48, %47
  store i32 %49, ptr %15, align 4, !tbaa !14
  %50 = load ptr, ptr %6, align 8, !tbaa !25
  %51 = load i32, ptr %14, align 4, !tbaa !14
  %52 = sext i32 %51 to i64
  %53 = getelementptr inbounds i8, ptr %50, i64 %52
  %54 = load i8, ptr %53, align 1, !tbaa !13
  %55 = load i32, ptr %14, align 4, !tbaa !14
  %56 = load i32, ptr %10, align 4, !tbaa !14
  %57 = add i32 %55, %56
  %58 = and i32 %57, 7
  %59 = zext i32 %58 to i64
  %60 = getelementptr inbounds nuw [8 x i8], ptr %11, i64 0, i64 %59
  store i8 %54, ptr %60, align 1, !tbaa !13
  %61 = load i32, ptr %15, align 4, !tbaa !14
  %62 = udiv i32 %61, 2
  %63 = trunc i32 %62 to i8
  %64 = load ptr, ptr %6, align 8, !tbaa !25
  %65 = load i32, ptr %14, align 4, !tbaa !14
  %66 = sext i32 %65 to i64
  %67 = getelementptr inbounds i8, ptr %64, i64 %66
  store i8 %63, ptr %67, align 1, !tbaa !13
  br label %68

68:                                               ; preds = %34
  %69 = load i32, ptr %14, align 4, !tbaa !14
  %70 = add nsw i32 %69, 1
  store i32 %70, ptr %14, align 4, !tbaa !14
  br label %30, !llvm.loop !214

71:                                               ; preds = %30
  br label %245

72:                                               ; preds = %24
  store i32 0, ptr %14, align 4, !tbaa !14
  br label %73

73:                                               ; preds = %111, %72
  %74 = load i32, ptr %14, align 4, !tbaa !14
  %75 = load i32, ptr %12, align 4, !tbaa !14
  %76 = icmp sle i32 %74, %75
  br i1 %76, label %77, label %114

77:                                               ; preds = %73
  %78 = load ptr, ptr %6, align 8, !tbaa !25
  %79 = load i32, ptr %14, align 4, !tbaa !14
  %80 = sext i32 %79 to i64
  %81 = getelementptr inbounds i8, ptr %78, i64 %80
  %82 = load i8, ptr %81, align 1, !tbaa !13
  %83 = zext i8 %82 to i32
  %84 = load i32, ptr %14, align 4, !tbaa !14
  %85 = and i32 %84, 7
  %86 = sext i32 %85 to i64
  %87 = getelementptr inbounds [8 x i8], ptr %11, i64 0, i64 %86
  %88 = load i8, ptr %87, align 1, !tbaa !13
  %89 = zext i8 %88 to i32
  %90 = sub nsw i32 %83, %89
  %91 = load i32, ptr %15, align 4, !tbaa !14
  %92 = add i32 %91, %90
  store i32 %92, ptr %15, align 4, !tbaa !14
  %93 = load ptr, ptr %6, align 8, !tbaa !25
  %94 = load i32, ptr %14, align 4, !tbaa !14
  %95 = sext i32 %94 to i64
  %96 = getelementptr inbounds i8, ptr %93, i64 %95
  %97 = load i8, ptr %96, align 1, !tbaa !13
  %98 = load i32, ptr %14, align 4, !tbaa !14
  %99 = load i32, ptr %10, align 4, !tbaa !14
  %100 = add i32 %98, %99
  %101 = and i32 %100, 7
  %102 = zext i32 %101 to i64
  %103 = getelementptr inbounds nuw [8 x i8], ptr %11, i64 0, i64 %102
  store i8 %97, ptr %103, align 1, !tbaa !13
  %104 = load i32, ptr %15, align 4, !tbaa !14
  %105 = udiv i32 %104, 3
  %106 = trunc i32 %105 to i8
  %107 = load ptr, ptr %6, align 8, !tbaa !25
  %108 = load i32, ptr %14, align 4, !tbaa !14
  %109 = sext i32 %108 to i64
  %110 = getelementptr inbounds i8, ptr %107, i64 %109
  store i8 %106, ptr %110, align 1, !tbaa !13
  br label %111

111:                                              ; preds = %77
  %112 = load i32, ptr %14, align 4, !tbaa !14
  %113 = add nsw i32 %112, 1
  store i32 %113, ptr %14, align 4, !tbaa !14
  br label %73, !llvm.loop !215

114:                                              ; preds = %73
  br label %245

115:                                              ; preds = %24
  store i32 0, ptr %14, align 4, !tbaa !14
  br label %116

116:                                              ; preds = %154, %115
  %117 = load i32, ptr %14, align 4, !tbaa !14
  %118 = load i32, ptr %12, align 4, !tbaa !14
  %119 = icmp sle i32 %117, %118
  br i1 %119, label %120, label %157

120:                                              ; preds = %116
  %121 = load ptr, ptr %6, align 8, !tbaa !25
  %122 = load i32, ptr %14, align 4, !tbaa !14
  %123 = sext i32 %122 to i64
  %124 = getelementptr inbounds i8, ptr %121, i64 %123
  %125 = load i8, ptr %124, align 1, !tbaa !13
  %126 = zext i8 %125 to i32
  %127 = load i32, ptr %14, align 4, !tbaa !14
  %128 = and i32 %127, 7
  %129 = sext i32 %128 to i64
  %130 = getelementptr inbounds [8 x i8], ptr %11, i64 0, i64 %129
  %131 = load i8, ptr %130, align 1, !tbaa !13
  %132 = zext i8 %131 to i32
  %133 = sub nsw i32 %126, %132
  %134 = load i32, ptr %15, align 4, !tbaa !14
  %135 = add i32 %134, %133
  store i32 %135, ptr %15, align 4, !tbaa !14
  %136 = load ptr, ptr %6, align 8, !tbaa !25
  %137 = load i32, ptr %14, align 4, !tbaa !14
  %138 = sext i32 %137 to i64
  %139 = getelementptr inbounds i8, ptr %136, i64 %138
  %140 = load i8, ptr %139, align 1, !tbaa !13
  %141 = load i32, ptr %14, align 4, !tbaa !14
  %142 = load i32, ptr %10, align 4, !tbaa !14
  %143 = add i32 %141, %142
  %144 = and i32 %143, 7
  %145 = zext i32 %144 to i64
  %146 = getelementptr inbounds nuw [8 x i8], ptr %11, i64 0, i64 %145
  store i8 %140, ptr %146, align 1, !tbaa !13
  %147 = load i32, ptr %15, align 4, !tbaa !14
  %148 = udiv i32 %147, 4
  %149 = trunc i32 %148 to i8
  %150 = load ptr, ptr %6, align 8, !tbaa !25
  %151 = load i32, ptr %14, align 4, !tbaa !14
  %152 = sext i32 %151 to i64
  %153 = getelementptr inbounds i8, ptr %150, i64 %152
  store i8 %149, ptr %153, align 1, !tbaa !13
  br label %154

154:                                              ; preds = %120
  %155 = load i32, ptr %14, align 4, !tbaa !14
  %156 = add nsw i32 %155, 1
  store i32 %156, ptr %14, align 4, !tbaa !14
  br label %116, !llvm.loop !216

157:                                              ; preds = %116
  br label %245

158:                                              ; preds = %24
  store i32 0, ptr %14, align 4, !tbaa !14
  br label %159

159:                                              ; preds = %197, %158
  %160 = load i32, ptr %14, align 4, !tbaa !14
  %161 = load i32, ptr %12, align 4, !tbaa !14
  %162 = icmp sle i32 %160, %161
  br i1 %162, label %163, label %200

163:                                              ; preds = %159
  %164 = load ptr, ptr %6, align 8, !tbaa !25
  %165 = load i32, ptr %14, align 4, !tbaa !14
  %166 = sext i32 %165 to i64
  %167 = getelementptr inbounds i8, ptr %164, i64 %166
  %168 = load i8, ptr %167, align 1, !tbaa !13
  %169 = zext i8 %168 to i32
  %170 = load i32, ptr %14, align 4, !tbaa !14
  %171 = and i32 %170, 7
  %172 = sext i32 %171 to i64
  %173 = getelementptr inbounds [8 x i8], ptr %11, i64 0, i64 %172
  %174 = load i8, ptr %173, align 1, !tbaa !13
  %175 = zext i8 %174 to i32
  %176 = sub nsw i32 %169, %175
  %177 = load i32, ptr %15, align 4, !tbaa !14
  %178 = add i32 %177, %176
  store i32 %178, ptr %15, align 4, !tbaa !14
  %179 = load ptr, ptr %6, align 8, !tbaa !25
  %180 = load i32, ptr %14, align 4, !tbaa !14
  %181 = sext i32 %180 to i64
  %182 = getelementptr inbounds i8, ptr %179, i64 %181
  %183 = load i8, ptr %182, align 1, !tbaa !13
  %184 = load i32, ptr %14, align 4, !tbaa !14
  %185 = load i32, ptr %10, align 4, !tbaa !14
  %186 = add i32 %184, %185
  %187 = and i32 %186, 7
  %188 = zext i32 %187 to i64
  %189 = getelementptr inbounds nuw [8 x i8], ptr %11, i64 0, i64 %188
  store i8 %183, ptr %189, align 1, !tbaa !13
  %190 = load i32, ptr %15, align 4, !tbaa !14
  %191 = udiv i32 %190, 5
  %192 = trunc i32 %191 to i8
  %193 = load ptr, ptr %6, align 8, !tbaa !25
  %194 = load i32, ptr %14, align 4, !tbaa !14
  %195 = sext i32 %194 to i64
  %196 = getelementptr inbounds i8, ptr %193, i64 %195
  store i8 %192, ptr %196, align 1, !tbaa !13
  br label %197

197:                                              ; preds = %163
  %198 = load i32, ptr %14, align 4, !tbaa !14
  %199 = add nsw i32 %198, 1
  store i32 %199, ptr %14, align 4, !tbaa !14
  br label %159, !llvm.loop !217

200:                                              ; preds = %159
  br label %245

201:                                              ; preds = %24
  store i32 0, ptr %14, align 4, !tbaa !14
  br label %202

202:                                              ; preds = %241, %201
  %203 = load i32, ptr %14, align 4, !tbaa !14
  %204 = load i32, ptr %12, align 4, !tbaa !14
  %205 = icmp sle i32 %203, %204
  br i1 %205, label %206, label %244

206:                                              ; preds = %202
  %207 = load ptr, ptr %6, align 8, !tbaa !25
  %208 = load i32, ptr %14, align 4, !tbaa !14
  %209 = sext i32 %208 to i64
  %210 = getelementptr inbounds i8, ptr %207, i64 %209
  %211 = load i8, ptr %210, align 1, !tbaa !13
  %212 = zext i8 %211 to i32
  %213 = load i32, ptr %14, align 4, !tbaa !14
  %214 = and i32 %213, 7
  %215 = sext i32 %214 to i64
  %216 = getelementptr inbounds [8 x i8], ptr %11, i64 0, i64 %215
  %217 = load i8, ptr %216, align 1, !tbaa !13
  %218 = zext i8 %217 to i32
  %219 = sub nsw i32 %212, %218
  %220 = load i32, ptr %15, align 4, !tbaa !14
  %221 = add i32 %220, %219
  store i32 %221, ptr %15, align 4, !tbaa !14
  %222 = load ptr, ptr %6, align 8, !tbaa !25
  %223 = load i32, ptr %14, align 4, !tbaa !14
  %224 = sext i32 %223 to i64
  %225 = getelementptr inbounds i8, ptr %222, i64 %224
  %226 = load i8, ptr %225, align 1, !tbaa !13
  %227 = load i32, ptr %14, align 4, !tbaa !14
  %228 = load i32, ptr %10, align 4, !tbaa !14
  %229 = add i32 %227, %228
  %230 = and i32 %229, 7
  %231 = zext i32 %230 to i64
  %232 = getelementptr inbounds nuw [8 x i8], ptr %11, i64 0, i64 %231
  store i8 %226, ptr %232, align 1, !tbaa !13
  %233 = load i32, ptr %15, align 4, !tbaa !14
  %234 = load i32, ptr %10, align 4, !tbaa !14
  %235 = udiv i32 %233, %234
  %236 = trunc i32 %235 to i8
  %237 = load ptr, ptr %6, align 8, !tbaa !25
  %238 = load i32, ptr %14, align 4, !tbaa !14
  %239 = sext i32 %238 to i64
  %240 = getelementptr inbounds i8, ptr %237, i64 %239
  store i8 %236, ptr %240, align 1, !tbaa !13
  br label %241

241:                                              ; preds = %206
  %242 = load i32, ptr %14, align 4, !tbaa !14
  %243 = add nsw i32 %242, 1
  store i32 %243, ptr %14, align 4, !tbaa !14
  br label %202, !llvm.loop !218

244:                                              ; preds = %202
  br label %245

245:                                              ; preds = %244, %200, %157, %114, %71
  br label %246

246:                                              ; preds = %267, %245
  %247 = load i32, ptr %14, align 4, !tbaa !14
  %248 = load i32, ptr %7, align 4, !tbaa !14
  %249 = icmp slt i32 %247, %248
  br i1 %249, label %250, label %270

250:                                              ; preds = %246
  %251 = load i32, ptr %14, align 4, !tbaa !14
  %252 = and i32 %251, 7
  %253 = sext i32 %252 to i64
  %254 = getelementptr inbounds [8 x i8], ptr %11, i64 0, i64 %253
  %255 = load i8, ptr %254, align 1, !tbaa !13
  %256 = zext i8 %255 to i32
  %257 = load i32, ptr %15, align 4, !tbaa !14
  %258 = sub i32 %257, %256
  store i32 %258, ptr %15, align 4, !tbaa !14
  %259 = load i32, ptr %15, align 4, !tbaa !14
  %260 = load i32, ptr %10, align 4, !tbaa !14
  %261 = udiv i32 %259, %260
  %262 = trunc i32 %261 to i8
  %263 = load ptr, ptr %6, align 8, !tbaa !25
  %264 = load i32, ptr %14, align 4, !tbaa !14
  %265 = sext i32 %264 to i64
  %266 = getelementptr inbounds i8, ptr %263, i64 %265
  store i8 %262, ptr %266, align 1, !tbaa !13
  br label %267

267:                                              ; preds = %250
  %268 = load i32, ptr %14, align 4, !tbaa !14
  %269 = add nsw i32 %268, 1
  store i32 %269, ptr %14, align 4, !tbaa !14
  br label %246, !llvm.loop !219

270:                                              ; preds = %246
  %271 = load i32, ptr %9, align 4, !tbaa !14
  %272 = load ptr, ptr %6, align 8, !tbaa !25
  %273 = sext i32 %271 to i64
  %274 = getelementptr inbounds i8, ptr %272, i64 %273
  store ptr %274, ptr %6, align 8, !tbaa !25
  call void @llvm.lifetime.end.p0(i64 4, ptr %15) #8
  call void @llvm.lifetime.end.p0(i64 4, ptr %14) #8
  br label %275

275:                                              ; preds = %270
  %276 = load i32, ptr %13, align 4, !tbaa !14
  %277 = add nsw i32 %276, 1
  store i32 %277, ptr %13, align 4, !tbaa !14
  br label %20, !llvm.loop !220

278:                                              ; preds = %20
  call void @llvm.lifetime.end.p0(i64 4, ptr %13) #8
  call void @llvm.lifetime.end.p0(i64 4, ptr %12) #8
  call void @llvm.lifetime.end.p0(i64 8, ptr %11) #8
  ret void
}