; Function Attrs: nofree norecurse nosync nounwind memory(argmem: readwrite) uwtable
define void @stbtt__h_prefilter(ptr noundef captures(none) %0, i32 noundef %1, i32 noundef %2, i32 noundef %3, i32 noundef %4) local_unnamed_addr #22 {
  %6 = alloca [8 x i8], align 8
  call void @llvm.lifetime.start.p0(i64 8, ptr nonnull %6) #32
  store i64 0, ptr %6, align 8
  %7 = icmp sgt i32 %2, 0
  br i1 %7, label %.lr.ph148, label %._crit_edge149

.lr.ph148:                                        ; preds = %5
  %8 = sub i32 %1, %4
  %9 = zext i32 %4 to i64
  %.not113 = icmp slt i32 %8, 0
  %10 = sext i32 %3 to i64
  %11 = add i32 %1, 1
  %12 = sub i32 %11, %4
  %wide.trip.count = zext i32 %12 to i64
  %wide.trip.count167 = zext i32 %12 to i64
  %wide.trip.count172 = zext i32 %12 to i64
  %wide.trip.count177 = zext i32 %12 to i64
  %wide.trip.count182 = zext i32 %12 to i64
  br label %13

13:                                               ; preds = %.lr.ph148, %._crit_edge
  %.095146 = phi i32 [ 0, %.lr.ph148 ], [ %99, %._crit_edge ]
  %.096144 = phi ptr [ %0, %.lr.ph148 ], [ %98, %._crit_edge ]
  call void @llvm.memset.p0.i64(ptr nonnull align 8 %6, i8 0, i64 %9, i1 false)
  switch i32 %4, label %.preheader [
    i32 2, label %.preheader105
    i32 3, label %.preheader107
    i32 4, label %.preheader109
    i32 5, label %.preheader111
  ]

.preheader111:                                    ; preds = %13
  br i1 %.not113, label %.loopexit, label %.lr.ph

.preheader109:                                    ; preds = %13
  br i1 %.not113, label %.loopexit, label %.lr.ph120

.preheader107:                                    ; preds = %13
  br i1 %.not113, label %.loopexit, label %.lr.ph126

.preheader105:                                    ; preds = %13
  br i1 %.not113, label %.loopexit, label %.lr.ph132

.preheader:                                       ; preds = %13
  br i1 %.not113, label %.loopexit, label %.lr.ph138

.lr.ph132:                                        ; preds = %.preheader105, %.lr.ph132
  %indvars.iv174 = phi i64 [ %indvars.iv.next175, %.lr.ph132 ], [ 0, %.preheader105 ]
  %.0131 = phi i32 [ %22, %.lr.ph132 ], [ 0, %.preheader105 ]
  %14 = getelementptr inbounds nuw i8, ptr %.096144, i64 %indvars.iv174
  %15 = load i8, ptr %14, align 1, !tbaa !12
  %16 = zext i8 %15 to i32
  %17 = and i64 %indvars.iv174, 7
  %18 = getelementptr inbounds nuw [8 x i8], ptr %6, i64 0, i64 %17
  %19 = load i8, ptr %18, align 1, !tbaa !12
  %20 = zext i8 %19 to i32
  %21 = sub nsw i32 %16, %20
  %22 = add i32 %21, %.0131
  %23 = add nuw i64 %indvars.iv174, 2
  %24 = and i64 %23, 7
  %25 = getelementptr inbounds nuw [8 x i8], ptr %6, i64 0, i64 %24
  store i8 %15, ptr %25, align 1, !tbaa !12
  %26 = lshr i32 %22, 1
  %27 = trunc i32 %26 to i8
  store i8 %27, ptr %14, align 1, !tbaa !12
  %indvars.iv.next175 = add nuw nsw i64 %indvars.iv174, 1
  %exitcond178.not = icmp eq i64 %indvars.iv.next175, %wide.trip.count177
  br i1 %exitcond178.not, label %.loopexit, label %.lr.ph132, !llvm.loop !189

.lr.ph126:                                        ; preds = %.preheader107, %.lr.ph126
  %indvars.iv169 = phi i64 [ %indvars.iv.next170, %.lr.ph126 ], [ 0, %.preheader107 ]
  %.2125 = phi i32 [ %36, %.lr.ph126 ], [ 0, %.preheader107 ]
  %28 = getelementptr inbounds nuw i8, ptr %.096144, i64 %indvars.iv169
  %29 = load i8, ptr %28, align 1, !tbaa !12
  %30 = zext i8 %29 to i32
  %31 = and i64 %indvars.iv169, 7
  %32 = getelementptr inbounds nuw [8 x i8], ptr %6, i64 0, i64 %31
  %33 = load i8, ptr %32, align 1, !tbaa !12
  %34 = zext i8 %33 to i32
  %35 = sub nsw i32 %30, %34
  %36 = add i32 %35, %.2125
  %37 = add nuw i64 %indvars.iv169, 3
  %38 = and i64 %37, 7
  %39 = getelementptr inbounds nuw [8 x i8], ptr %6, i64 0, i64 %38
  store i8 %29, ptr %39, align 1, !tbaa !12
  %40 = udiv i32 %36, 3
  %41 = trunc i32 %40 to i8
  store i8 %41, ptr %28, align 1, !tbaa !12
  %indvars.iv.next170 = add nuw nsw i64 %indvars.iv169, 1
  %exitcond173.not = icmp eq i64 %indvars.iv.next170, %wide.trip.count172
  br i1 %exitcond173.not, label %.loopexit, label %.lr.ph126, !llvm.loop !190

.lr.ph120:                                        ; preds = %.preheader109, %.lr.ph120
  %indvars.iv164 = phi i64 [ %indvars.iv.next165, %.lr.ph120 ], [ 0, %.preheader109 ]
  %.3119 = phi i32 [ %51, %.lr.ph120 ], [ 0, %.preheader109 ]
  %42 = getelementptr inbounds nuw i8, ptr %.096144, i64 %indvars.iv164
  %43 = load i8, ptr %42, align 1, !tbaa !12
  %44 = zext i8 %43 to i32
  %45 = and i64 %indvars.iv164, 7
  %46 = and i64 %indvars.iv164, 7
  %47 = getelementptr inbounds nuw [8 x i8], ptr %6, i64 0, i64 %46
  %48 = load i8, ptr %47, align 1, !tbaa !12
  %49 = zext i8 %48 to i32
  %50 = sub nsw i32 %44, %49
  %51 = add i32 %50, %.3119
  %52 = xor i64 %45, 4
  %53 = getelementptr inbounds nuw [8 x i8], ptr %6, i64 0, i64 %52
  store i8 %43, ptr %53, align 1, !tbaa !12
  %54 = lshr i32 %51, 2
  %55 = trunc i32 %54 to i8
  store i8 %55, ptr %42, align 1, !tbaa !12
  %indvars.iv.next165 = add nuw nsw i64 %indvars.iv164, 1
  %exitcond168.not = icmp eq i64 %indvars.iv.next165, %wide.trip.count167
  br i1 %exitcond168.not, label %.loopexit, label %.lr.ph120, !llvm.loop !191

.lr.ph:                                           ; preds = %.preheader111, %.lr.ph
  %indvars.iv = phi i64 [ %indvars.iv.next, %.lr.ph ], [ 0, %.preheader111 ]
  %.4115 = phi i32 [ %64, %.lr.ph ], [ 0, %.preheader111 ]
  %56 = getelementptr inbounds nuw i8, ptr %.096144, i64 %indvars.iv
  %57 = load i8, ptr %56, align 1, !tbaa !12
  %58 = zext i8 %57 to i32
  %59 = and i64 %indvars.iv, 7
  %60 = getelementptr inbounds nuw [8 x i8], ptr %6, i64 0, i64 %59
  %61 = load i8, ptr %60, align 1, !tbaa !12
  %62 = zext i8 %61 to i32
  %63 = sub nsw i32 %58, %62
  %64 = add i32 %63, %.4115
  %65 = add nuw i64 %indvars.iv, 5
  %66 = and i64 %65, 7
  %67 = getelementptr inbounds nuw [8 x i8], ptr %6, i64 0, i64 %66
  store i8 %57, ptr %67, align 1, !tbaa !12
  %68 = udiv i32 %64, 5
  %69 = trunc i32 %68 to i8
  store i8 %69, ptr %56, align 1, !tbaa !12
  %indvars.iv.next = add nuw nsw i64 %indvars.iv, 1
  %exitcond.not = icmp eq i64 %indvars.iv.next, %wide.trip.count
  br i1 %exitcond.not, label %.loopexit, label %.lr.ph, !llvm.loop !192

.lr.ph138:                                        ; preds = %.preheader, %.lr.ph138
  %indvars.iv179 = phi i64 [ %indvars.iv.next180, %.lr.ph138 ], [ 0, %.preheader ]
  %.5137 = phi i32 [ %79, %.lr.ph138 ], [ 0, %.preheader ]
  %70 = getelementptr inbounds nuw i8, ptr %.096144, i64 %indvars.iv179
  %71 = load i8, ptr %70, align 1, !tbaa !12
  %72 = zext i8 %71 to i32
  %73 = trunc nuw nsw i64 %indvars.iv179 to i32
  %74 = and i64 %indvars.iv179, 7
  %75 = getelementptr inbounds nuw [8 x i8], ptr %6, i64 0, i64 %74
  %76 = load i8, ptr %75, align 1, !tbaa !12
  %77 = zext i8 %76 to i32
  %78 = sub nsw i32 %72, %77
  %79 = add i32 %78, %.5137
  %80 = add i32 %4, %73
  %81 = and i32 %80, 7
  %82 = zext nneg i32 %81 to i64
  %83 = getelementptr inbounds nuw [8 x i8], ptr %6, i64 0, i64 %82
  store i8 %71, ptr %83, align 1, !tbaa !12
  %84 = udiv i32 %79, %4
  %85 = trunc i32 %84 to i8
  store i8 %85, ptr %70, align 1, !tbaa !12
  %indvars.iv.next180 = add nuw nsw i64 %indvars.iv179, 1
  %exitcond183.not = icmp eq i64 %indvars.iv.next180, %wide.trip.count182
  br i1 %exitcond183.not, label %.loopexit, label %.lr.ph138, !llvm.loop !193

.loopexit:                                        ; preds = %.lr.ph, %.lr.ph120, %.lr.ph126, %.lr.ph132, %.lr.ph138, %.preheader111, %.preheader109, %.preheader107, %.preheader105, %.preheader
  %.189 = phi i32 [ 0, %.preheader ], [ 0, %.preheader105 ], [ 0, %.preheader107 ], [ 0, %.preheader109 ], [ 0, %.preheader111 ], [ %12, %.lr.ph138 ], [ %12, %.lr.ph132 ], [ %12, %.lr.ph126 ], [ %12, %.lr.ph120 ], [ %12, %.lr.ph ]
  %.1 = phi i32 [ 0, %.preheader ], [ 0, %.preheader105 ], [ 0, %.preheader107 ], [ 0, %.preheader109 ], [ 0, %.preheader111 ], [ %79, %.lr.ph138 ], [ %22, %.lr.ph132 ], [ %36, %.lr.ph126 ], [ %51, %.lr.ph120 ], [ %64, %.lr.ph ]
  %86 = icmp slt i32 %.189, %1
  br i1 %86, label %.lr.ph143.preheader, label %._crit_edge

.lr.ph143.preheader:                              ; preds = %.loopexit
  %87 = zext i32 %.189 to i64
  br label %.lr.ph143

.lr.ph143:                                        ; preds = %.lr.ph143.preheader, %.lr.ph143
  %indvars.iv184 = phi i64 [ %87, %.lr.ph143.preheader ], [ %indvars.iv.next185, %.lr.ph143 ]
  %.6142 = phi i32 [ %.1, %.lr.ph143.preheader ], [ %92, %.lr.ph143 ]
  %88 = and i64 %indvars.iv184, 7
  %89 = getelementptr inbounds nuw [8 x i8], ptr %6, i64 0, i64 %88
  %90 = load i8, ptr %89, align 1, !tbaa !12
  %91 = zext i8 %90 to i32
  %92 = sub i32 %.6142, %91
  %93 = udiv i32 %92, %4
  %94 = trunc i32 %93 to i8
  %95 = getelementptr inbounds nuw i8, ptr %.096144, i64 %indvars.iv184
  store i8 %94, ptr %95, align 1, !tbaa !12
  %indvars.iv.next185 = add nuw nsw i64 %indvars.iv184, 1
  %96 = trunc nuw i64 %indvars.iv.next185 to i32
  %97 = icmp sgt i32 %1, %96
  br i1 %97, label %.lr.ph143, label %._crit_edge, !llvm.loop !194

._crit_edge:                                      ; preds = %.lr.ph143, %.loopexit
  %98 = getelementptr inbounds i8, ptr %.096144, i64 %10
  %99 = add nuw nsw i32 %.095146, 1
  %exitcond187.not = icmp eq i32 %99, %2
  br i1 %exitcond187.not, label %._crit_edge149, label %13, !llvm.loop !195

._crit_edge149:                                   ; preds = %._crit_edge, %5
  call void @llvm.lifetime.end.p0(i64 8, ptr nonnull %6) #32
  ret void
}